target datalayout = "e-m:e-p270:32:32-p271:32:32-p272:64:64-i64:64-i128:128-f80:128-n8:16:32:64-S128"
target triple = "x86_64-pc-linux-gnu"

%struct.config = type { %struct.cliConnInfo, %struct.timeval, ptr, i32, %struct.cliSSLconfig, i64, i64, i32, i32, i32, i32, i32, i32, i32, i32, i32, i32, i64, i32, i32, i32, i32, i32, i32, i32, i32, i32, i32, i32, i32, i32, ptr, ptr, i32, i32, i64, i32, i32, i64, i64, i32, i32, ptr, i32, i32, i32, i32, ptr, ptr, [128 x i8], ptr, i32, i32, i32, i32, i32, ptr, i32, i32, %struct.clusterManagerCommand, i32, i32, i32, i32, i32, i32, ptr, ptr, ptr, i32, i32 }
%struct.cliConnInfo = type { ptr, i32, i32, ptr, ptr }
%struct.timeval = type { i64, i64 }
%struct.cliSSLconfig = type { ptr, ptr, ptr, i32, ptr, ptr, ptr, ptr }
%struct.clusterManagerCommand = type { ptr, i32, ptr, ptr, i32, i32, ptr, ptr, ptr, i32, ptr, i32, i32, i32, float, ptr, ptr, ptr, i32 }

@stderr = external global ptr, align 8
@config = internal global %struct.config zeroinitializer, align 8
@.str.8 = private unnamed_addr constant [5 x i8] c"TERM\00", align 1
@.str.9 = private unnamed_addr constant [6 x i8] c"xterm\00", align 1
@.str.591 = private unnamed_addr constant [42 x i8] c"Using -X option but stdin tag not match.\0A\00", align 1

; Function Attrs: nounwind uwtable
define dso_local i32 @isColorTerm() #0 {
  %1 = alloca ptr, align 8
  call void @llvm.lifetime.start.p0(i64 8, ptr %1) #15
  %2 = call ptr @getenv(ptr noundef @.str.8) #15
  store ptr %2, ptr %1, align 8, !tbaa !5
  %3 = load ptr, ptr %1, align 8, !tbaa !5
  %4 = icmp ne ptr %3, null
  br i1 %4, label %5, label %9

5:                                                ; preds = %0
  %6 = load ptr, ptr %1, align 8, !tbaa !5
  %7 = call ptr @strstr(ptr noundef %6, ptr noundef @.str.9) #16
  %8 = icmp ne ptr %7, null
  br label %9

9:                                                ; preds = %5, %0
  %10 = phi i1 [ false, %0 ], [ %8, %5 ]
  %11 = zext i1 %10 to i32
  call void @llvm.lifetime.end.p0(i64 8, ptr %1) #15
  ret i32 %11
}

; Function Attrs: nounwind uwtable
define internal i32 @createClusterManagerCommand(ptr noundef %0, i32 noundef %1, ptr noundef %2) #0 {
  %4 = alloca i32, align 4
  %5 = alloca ptr, align 8
  %6 = alloca i32, align 4
  %7 = alloca ptr, align 8
  %8 = alloca ptr, align 8
  %9 = alloca ptr, align 8
  %10 = alloca i32, align 4
  %11 = alloca i32, align 4
  %12 = alloca i32, align 4
  store ptr %0, ptr %5, align 8, !tbaa !5
  store i32 %1, ptr %6, align 4, !tbaa !10
  store ptr %2, ptr %7, align 8, !tbaa !42
  call void @llvm.lifetime.start.p0(i64 8, ptr %8) #15
  store ptr getelementptr inbounds nuw (%struct.config, ptr @config, i32 0, i32 59), ptr %8, align 8, !tbaa !542
  %13 = load ptr, ptr %5, align 8, !tbaa !5
  %14 = load ptr, ptr %8, align 8, !tbaa !542
  %15 = getelementptr inbounds nuw %struct.clusterManagerCommand, ptr %14, i32 0, i32 0
  store ptr %13, ptr %15, align 8, !tbaa !544
  %16 = load i32, ptr %6, align 4, !tbaa !10
  %17 = load ptr, ptr %8, align 8, !tbaa !542
  %18 = getelementptr inbounds nuw %struct.clusterManagerCommand, ptr %17, i32 0, i32 1
  store i32 %16, ptr %18, align 8, !tbaa !545
  %19 = load i32, ptr %6, align 4, !tbaa !10
  %20 = icmp ne i32 %19, 0
  br i1 %20, label %21, label %23

21:                                               ; preds = %3
  %22 = load ptr, ptr %7, align 8, !tbaa !42
  br label %24

23:                                               ; preds = %3
  br label %24

24:                                               ; preds = %23, %21
  %25 = phi ptr [ %22, %21 ], [ null, %23 ]
  %26 = load ptr, ptr %8, align 8, !tbaa !542
  %27 = getelementptr inbounds nuw %struct.clusterManagerCommand, ptr %26, i32 0, i32 2
  store ptr %25, ptr %27, align 8, !tbaa !546
  %28 = call i32 @isColorTerm()
  %29 = icmp ne i32 %28, 0
  br i1 %29, label %30, label %35

30:                                               ; preds = %24
  %31 = load ptr, ptr %8, align 8, !tbaa !542
  %32 = getelementptr inbounds nuw %struct.clusterManagerCommand, ptr %31, i32 0, i32 4
  %33 = load i32, ptr %32, align 8, !tbaa !547
  %34 = or i32 %33, 256
  store i32 %34, ptr %32, align 8, !tbaa !547
  br label %35

35:                                               ; preds = %30, %24
  %36 = load i32, ptr getelementptr inbounds nuw (%struct.config, ptr @config, i32 0, i32 40), align 8, !tbaa !278
  %37 = icmp ne i32 %36, 0
  br i1 %37, label %38, label %71

38:                                               ; preds = %35
  call void @llvm.lifetime.start.p0(i64 8, ptr %9) #15
  %39 = load ptr, ptr %8, align 8, !tbaa !542
  %40 = getelementptr inbounds nuw %struct.clusterManagerCommand, ptr %39, i32 0, i32 1
  %41 = load i32, ptr %40, align 8, !tbaa !545
  %42 = add nsw i32 %41, 1
  %43 = sext i32 %42 to i64
  %44 = mul i64 8, %43
  %45 = call noalias ptr @zmalloc(i64 noundef %44) #18
  store ptr %45, ptr %9, align 8, !tbaa !42
  %46 = load ptr, ptr %9, align 8, !tbaa !42
  %47 = load ptr, ptr %8, align 8, !tbaa !542
  %48 = getelementptr inbounds nuw %struct.clusterManagerCommand, ptr %47, i32 0, i32 2
  %49 = load ptr, ptr %48, align 8, !tbaa !546
  %50 = load ptr, ptr %8, align 8, !tbaa !542
  %51 = getelementptr inbounds nuw %struct.clusterManagerCommand, ptr %50, i32 0, i32 1
  %52 = load i32, ptr %51, align 8, !tbaa !545
  %53 = sext i32 %52 to i64
  %54 = mul i64 8, %53
  call void @llvm.memcpy.p0.p0.i64(ptr align 8 %46, ptr align 8 %49, i64 %54, i1 false)
  %55 = call ptr @readArgFromStdin()
  %56 = load ptr, ptr %8, align 8, !tbaa !542
  %57 = getelementptr inbounds nuw %struct.clusterManagerCommand, ptr %56, i32 0, i32 3
  store ptr %55, ptr %57, align 8, !tbaa !548
  %58 = load ptr, ptr %8, align 8, !tbaa !542
  %59 = getelementptr inbounds nuw %struct.clusterManagerCommand, ptr %58, i32 0, i32 3
  %60 = load ptr, ptr %59, align 8, !tbaa !548
  %61 = load ptr, ptr %9, align 8, !tbaa !42
  %62 = load ptr, ptr %8, align 8, !tbaa !542
  %63 = getelementptr inbounds nuw %struct.clusterManagerCommand, ptr %62, i32 0, i32 1
  %64 = load i32, ptr %63, align 8, !tbaa !545
  %65 = add nsw i32 %64, 1
  store i32 %65, ptr %63, align 8, !tbaa !545
  %66 = sext i32 %64 to i64
  %67 = getelementptr inbounds ptr, ptr %61, i64 %66
  store ptr %60, ptr %67, align 8, !tbaa !5
  %68 = load ptr, ptr %9, align 8, !tbaa !42
  %69 = load ptr, ptr %8, align 8, !tbaa !542
  %70 = getelementptr inbounds nuw %struct.clusterManagerCommand, ptr %69, i32 0, i32 2
  store ptr %68, ptr %70, align 8, !tbaa !546
  call void @llvm.lifetime.end.p0(i64 8, ptr %9) #15
  br label %119

71:                                               ; preds = %35
  %72 = load i32, ptr getelementptr inbounds nuw (%struct.config, ptr @config, i32 0, i32 41), align 4, !tbaa !279
  %73 = icmp ne i32 %72, 0
  br i1 %73, label %74, label %118

74:                                               ; preds = %71
  call void @llvm.lifetime.start.p0(i64 4, ptr %10) #15
  store i32 0, ptr %10, align 4, !tbaa !10
  call void @llvm.lifetime.start.p0(i64 4, ptr %11) #15
  store i32 0, ptr %11, align 4, !tbaa !10
  %75 = call ptr @readArgFromStdin()
  %76 = load ptr, ptr %8, align 8, !tbaa !542
  %77 = getelementptr inbounds nuw %struct.clusterManagerCommand, ptr %76, i32 0, i32 3
  store ptr %75, ptr %77, align 8, !tbaa !548
  br label %78

78:                                               ; preds = %102, %74
  %79 = load i32, ptr %10, align 4, !tbaa !10
  %80 = load i32, ptr %6, align 4, !tbaa !10
  %81 = icmp slt i32 %79, %80
  br i1 %81, label %82, label %105

82:                                               ; preds = %78
  %83 = load ptr, ptr %7, align 8, !tbaa !42
  %84 = load i32, ptr %10, align 4, !tbaa !10
  %85 = sext i32 %84 to i64
  %86 = getelementptr inbounds ptr, ptr %83, i64 %85
  %87 = load ptr, ptr %86, align 8, !tbaa !5
  %88 = load ptr, ptr getelementptr inbounds nuw (%struct.config, ptr @config, i32 0, i32 42), align 8, !tbaa !280
  %89 = call i32 @strcmp(ptr noundef %87, ptr noundef %88) #16
  %90 = icmp ne i32 %89, 0
  br i1 %90, label %91, label %92

91:                                               ; preds = %82
  br label %102

92:                                               ; preds = %82
  store i32 1, ptr %11, align 4, !tbaa !10
  %93 = load ptr, ptr %8, align 8, !tbaa !542
  %94 = getelementptr inbounds nuw %struct.clusterManagerCommand, ptr %93, i32 0, i32 3
  %95 = load ptr, ptr %94, align 8, !tbaa !548
  %96 = load ptr, ptr %8, align 8, !tbaa !542
  %97 = getelementptr inbounds nuw %struct.clusterManagerCommand, ptr %96, i32 0, i32 2
  %98 = load ptr, ptr %97, align 8, !tbaa !546
  %99 = load i32, ptr %10, align 4, !tbaa !10
  %100 = sext i32 %99 to i64
  %101 = getelementptr inbounds ptr, ptr %98, i64 %100
  store ptr %95, ptr %101, align 8, !tbaa !5
  br label %105

102:                                              ; preds = %91
  %103 = load i32, ptr %10, align 4, !tbaa !10
  %104 = add nsw i32 %103, 1
  store i32 %104, ptr %10, align 4, !tbaa !10
  br label %78, !llvm.loop !549

105:                                              ; preds = %92, %78
  %106 = load i32, ptr %11, align 4, !tbaa !10
  %107 = icmp ne i32 %106, 0
  br i1 %107, label %114, label %108

108:                                              ; preds = %105
  %109 = load ptr, ptr %8, align 8, !tbaa !542
  %110 = getelementptr inbounds nuw %struct.clusterManagerCommand, ptr %109, i32 0, i32 3
  %111 = load ptr, ptr %110, align 8, !tbaa !548
  call void @hi_sdsfree(ptr noundef %111)
  %112 = load ptr, ptr @stderr, align 8, !tbaa !12
  %113 = call i32 (ptr, ptr, ...) @fprintf(ptr noundef %112, ptr noundef @.str.591) #15
  store i32 1, ptr %4, align 4
  store i32 1, ptr %12, align 4
  br label %115

114:                                              ; preds = %105
  store i32 0, ptr %12, align 4
  br label %115

115:                                              ; preds = %114, %108
  call void @llvm.lifetime.end.p0(i64 4, ptr %11) #15
  call void @llvm.lifetime.end.p0(i64 4, ptr %10) #15
  %116 = load i32, ptr %12, align 4
  switch i32 %116, label %120 [
    i32 0, label %117
  ]

117:                                              ; preds = %115
  br label %118

118:                                              ; preds = %117, %71
  br label %119

119:                                              ; preds = %118, %38
  store i32 0, ptr %4, align 4
  store i32 1, ptr %12, align 4
  br label %120

120:                                              ; preds = %119, %115
  call void @llvm.lifetime.end.p0(i64 8, ptr %8) #15
  %121 = load i32, ptr %4, align 4
  ret i32 %121
}