; Function Attrs: nounwind uwtable
define internal fastcc range(i32 0, 2) i32 @createClusterManagerCommand(ptr noundef %0, i32 noundef %1, ptr noundef %2) unnamed_addr #0 {
  store ptr %0, ptr getelementptr inbounds nuw (i8, ptr @config, i64 528), align 8, !tbaa !504
  store i32 %1, ptr getelementptr inbounds nuw (i8, ptr @config, i64 536), align 8, !tbaa !505
  %.not = icmp eq i32 %1, 0
  %4 = select i1 %.not, ptr null, ptr %2
  store ptr %4, ptr getelementptr inbounds nuw (i8, ptr @config, i64 544), align 8, !tbaa !506
  %5 = tail call ptr @getenv(ptr noundef nonnull @.str.8) #33
  %.not.i = icmp eq ptr %5, null
  br i1 %.not.i, label %isColorTerm.exit.thread, label %isColorTerm.exit

isColorTerm.exit:                                 ; preds = %3
  %6 = tail call ptr @strstr(ptr noundef nonnull dereferenceable(1) %5, ptr noundef nonnull dereferenceable(1) @.str.9) #35
  %.not43 = icmp eq ptr %6, null
  br i1 %.not43, label %isColorTerm.exit.thread, label %7

7:                                                ; preds = %isColorTerm.exit
  %8 = load i32, ptr getelementptr inbounds nuw (i8, ptr @config, i64 560), align 8, !tbaa !507
  %9 = or i32 %8, 256
  store i32 %9, ptr getelementptr inbounds nuw (i8, ptr @config, i64 560), align 8, !tbaa !507
  br label %isColorTerm.exit.thread

isColorTerm.exit.thread:                          ; preds = %3, %7, %isColorTerm.exit
  %10 = load i32, ptr getelementptr inbounds nuw (i8, ptr @config, i64 304), align 8, !tbaa !252
  %.not34 = icmp eq i32 %10, 0
  br i1 %.not34, label %25, label %11

11:                                               ; preds = %isColorTerm.exit.thread
  %12 = add nsw i32 %1, 1
  %13 = sext i32 %12 to i64
  %14 = shl nsw i64 %13, 3
  %15 = tail call noalias ptr @zmalloc(i64 noundef %14) #37
  %16 = load ptr, ptr getelementptr inbounds nuw (i8, ptr @config, i64 544), align 8, !tbaa !506
  %17 = load i32, ptr getelementptr inbounds nuw (i8, ptr @config, i64 536), align 8, !tbaa !505
  %18 = sext i32 %17 to i64
  %19 = shl nsw i64 %18, 3
  tail call void @llvm.memcpy.p0.p0.i64(ptr align 8 %15, ptr align 8 %16, i64 %19, i1 false)
  %20 = tail call ptr @readArgFromStdin() #33
  store ptr %20, ptr getelementptr inbounds nuw (i8, ptr @config, i64 552), align 8, !tbaa !508
  %21 = load i32, ptr getelementptr inbounds nuw (i8, ptr @config, i64 536), align 8, !tbaa !505
  %22 = add nsw i32 %21, 1
  store i32 %22, ptr getelementptr inbounds nuw (i8, ptr @config, i64 536), align 8, !tbaa !505
  %23 = sext i32 %21 to i64
  %24 = getelementptr inbounds ptr, ptr %15, i64 %23
  store ptr %20, ptr %24, align 8, !tbaa !24
  store ptr %15, ptr getelementptr inbounds nuw (i8, ptr @config, i64 544), align 8, !tbaa !506
  br label %.critedge40

25:                                               ; preds = %isColorTerm.exit.thread
  %26 = load i32, ptr getelementptr inbounds nuw (i8, ptr @config, i64 308), align 4, !tbaa !253
  %.not35 = icmp eq i32 %26, 0
  br i1 %.not35, label %.critedge40, label %27

27:                                               ; preds = %25
  %28 = tail call ptr @readArgFromStdin() #33
  store ptr %28, ptr getelementptr inbounds nuw (i8, ptr @config, i64 552), align 8, !tbaa !508
  %.not3844 = icmp sgt i32 %1, 0
  br i1 %.not3844, label %.lr.ph, label %.critedge41

.lr.ph:                                           ; preds = %27
  %29 = load ptr, ptr getelementptr inbounds nuw (i8, ptr @config, i64 312), align 8, !tbaa !254
  %wide.trip.count = zext nneg i32 %1 to i64
  br label %31

30:                                               ; preds = %31
  %indvars.iv.next = add nuw nsw i64 %indvars.iv, 1
  %exitcond.not = icmp eq i64 %indvars.iv.next, %wide.trip.count
  br i1 %exitcond.not, label %.critedge41, label %31, !llvm.loop !509

31:                                               ; preds = %.lr.ph, %30
  %indvars.iv = phi i64 [ 0, %.lr.ph ], [ %indvars.iv.next, %30 ]
  %32 = getelementptr inbounds nuw ptr, ptr %2, i64 %indvars.iv
  %33 = load ptr, ptr %32, align 8, !tbaa !24
  %34 = tail call i32 @strcmp(ptr noundef nonnull dereferenceable(1) %33, ptr noundef nonnull dereferenceable(1) %29) #35
  %.not36 = icmp eq i32 %34, 0
  br i1 %.not36, label %35, label %30

35:                                               ; preds = %31
  %36 = load ptr, ptr getelementptr inbounds nuw (i8, ptr @config, i64 544), align 8, !tbaa !506
  %37 = getelementptr inbounds nuw ptr, ptr %36, i64 %indvars.iv
  store ptr %28, ptr %37, align 8, !tbaa !24
  br label %.critedge40

.critedge41:                                      ; preds = %30, %27
  tail call void @hi_sdsfree(ptr noundef %28) #33
  %38 = load ptr, ptr @stderr, align 8, !tbaa !5
  %39 = tail call i64 @fwrite(ptr nonnull @.str.591, i64 41, i64 1, ptr %38) #34
  br label %.critedge40

.critedge40:                                      ; preds = %35, %11, %25, %.critedge41
  %.1 = phi i32 [ 1, %.critedge41 ], [ 0, %35 ], [ 0, %25 ], [ 0, %11 ]
  ret i32 %.1
}